target datalayout = "e-m:e-p270:32:32-p271:32:32-p272:64:64-i64:64-i128:128-f80:128-n8:16:32:64-S128"
target triple = "x86_64-pc-linux-gnu"

%struct.lwCanvas = type { i32, i32, ptr }

; Function Attrs: nounwind uwtable
define dso_local void @lwDrawPixel(ptr noundef %0, i32 noundef %1, i32 noundef %2, i32 noundef %3) #0 {
  %5 = alloca ptr, align 8
  %6 = alloca i32, align 4
  %7 = alloca i32, align 4
  %8 = alloca i32, align 4
  store ptr %0, ptr %5, align 8, !tbaa !40
  store i32 %1, ptr %6, align 4, !tbaa !15
  store i32 %2, ptr %7, align 4, !tbaa !15
  store i32 %3, ptr %8, align 4, !tbaa !15
  %9 = load i32, ptr %6, align 4, !tbaa !15
  %10 = icmp slt i32 %9, 0
  br i1 %10, label %26, label %11

11:                                               ; preds = %4
  %12 = load i32, ptr %6, align 4, !tbaa !15
  %13 = load ptr, ptr %5, align 8, !tbaa !40
  %14 = getelementptr inbounds nuw %struct.lwCanvas, ptr %13, i32 0, i32 0
  %15 = load i32, ptr %14, align 8, !tbaa !42
  %16 = icmp sge i32 %12, %15
  br i1 %16, label %26, label %17

17:                                               ; preds = %11
  %18 = load i32, ptr %7, align 4, !tbaa !15
  %19 = icmp slt i32 %18, 0
  br i1 %19, label %26, label %20

20:                                               ; preds = %17
  %21 = load i32, ptr %7, align 4, !tbaa !15
  %22 = load ptr, ptr %5, align 8, !tbaa !40
  %23 = getelementptr inbounds nuw %struct.lwCanvas, ptr %22, i32 0, i32 1
  %24 = load i32, ptr %23, align 4, !tbaa !44
  %25 = icmp sge i32 %21, %24
  br i1 %25, label %26, label %27

26:                                               ; preds = %20, %17, %11, %4
  br label %42

27:                                               ; preds = %20
  %28 = load i32, ptr %8, align 4, !tbaa !15
  %29 = trunc i32 %28 to i8
  %30 = load ptr, ptr %5, align 8, !tbaa !40
  %31 = getelementptr inbounds nuw %struct.lwCanvas, ptr %30, i32 0, i32 2
  %32 = load ptr, ptr %31, align 8, !tbaa !45
  %33 = load i32, ptr %6, align 4, !tbaa !15
  %34 = load i32, ptr %7, align 4, !tbaa !15
  %35 = load ptr, ptr %5, align 8, !tbaa !40
  %36 = getelementptr inbounds nuw %struct.lwCanvas, ptr %35, i32 0, i32 0
  %37 = load i32, ptr %36, align 8, !tbaa !42
  %38 = mul nsw i32 %34, %37
  %39 = add nsw i32 %33, %38
  %40 = sext i32 %39 to i64
  %41 = getelementptr inbounds i8, ptr %32, i64 %40
  store i8 %29, ptr %41, align 1, !tbaa !12
  br label %42

42:                                               ; preds = %27, %26
  ret void
}