; Function Attrs: mustprogress nofree norecurse nosync nounwind willreturn memory(write, argmem: readwrite, inaccessiblemem: none) uwtable
define dso_local void @lwDrawPixel(ptr noundef readonly captures(none) %0, i32 noundef %1, i32 noundef %2, i32 noundef %3) local_unnamed_addr #7 {
  %5 = icmp slt i32 %1, 0
  br i1 %5, label %21, label %6

6:                                                ; preds = %4
  %7 = load i32, ptr %0, align 8, !tbaa !37
  %8 = icmp sge i32 %1, %7
  %9 = icmp slt i32 %2, 0
  %or.cond = or i1 %9, %8
  br i1 %or.cond, label %21, label %10

10:                                               ; preds = %6
  %11 = getelementptr inbounds nuw i8, ptr %0, i64 4
  %12 = load i32, ptr %11, align 4, !tbaa !39
  %.not = icmp slt i32 %2, %12
  br i1 %.not, label %13, label %21

13:                                               ; preds = %10
  %14 = trunc i32 %3 to i8
  %15 = getelementptr inbounds nuw i8, ptr %0, i64 8
  %16 = load ptr, ptr %15, align 8, !tbaa !40
  %17 = mul nsw i32 %7, %2
  %18 = add nuw nsw i32 %17, %1
  %19 = zext nneg i32 %18 to i64
  %20 = getelementptr inbounds nuw i8, ptr %16, i64 %19
  store i8 %14, ptr %20, align 1, !tbaa !5
  br label %21

21:                                               ; preds = %4, %6, %10, %13
  ret void
}